target datalayout = "e-m:e-p270:32:32-p271:32:32-p272:64:64-i64:64-i128:128-f80:128-n8:16:32:64-S128"
target triple = "x86_64-pc-linux-gnu"

%struct.ossl_quic_tx_packetiser_st = type { %struct.ossl_quic_tx_packetiser_args_st, ptr, i64, ptr, ptr, %struct.quic_fifd_st, [3 x i64], %struct.OSSL_TIME, i64, i16, %struct.ossl_quic_frame_conn_close_st, i64, i64, [4 x %struct.txp_el], ptr, ptr, ptr, ptr, ptr }
%struct.ossl_quic_tx_packetiser_args_st = type { %struct.quic_conn_id_st, %struct.quic_conn_id_st, %union.bio_addr_st, i32, ptr, ptr, ptr, ptr, ptr, ptr, ptr, ptr, ptr, ptr, ptr, ptr, ptr, ptr, ptr, i32, [3 x ptr] }
%struct.quic_conn_id_st = type { i8, [20 x i8] }
%union.bio_addr_st = type { %struct.sockaddr_in6, [84 x i8] }
%struct.sockaddr_in6 = type { i16, i16, i32, %struct.in6_addr, i32 }
%struct.in6_addr = type { %union.anon }
%union.anon = type { [4 x i32] }
%struct.quic_fifd_st = type { ptr, ptr, ptr, ptr, ptr, ptr, ptr, ptr, ptr, ptr, ptr, ptr, ptr }
%struct.OSSL_TIME = type { i64 }
%struct.ossl_quic_frame_conn_close_st = type { i8, i64, i64, ptr, i64 }
%struct.txp_el = type { ptr, i64, ptr, i64 }
%struct.quic_stream_st = type { %struct.quic_stream_list_node_st, %struct.quic_stream_list_node_st, %struct.quic_stream_list_node_st, ptr, i64, i64, i64, i64, i64, i64, i64, ptr, ptr, %struct.quic_txfc_st, %struct.quic_rxfc_st, i64 }
%struct.quic_stream_list_node_st = type { ptr, ptr }
%struct.quic_txfc_st = type { ptr, i64, i64, i8 }
%struct.quic_rxfc_st = type { i64, i64, i64, i64, i64, i64, i64, %struct.OSSL_TIME, ptr, ptr, ptr, i8, i8, i8, i8 }

; Function Attrs: nounwind uwtable
define internal void @on_confirm_notify(i64 noundef %0, i64 noundef %1, ptr noundef %2, ptr noundef %3) #0 {
  %5 = alloca i64, align 8
  %6 = alloca i64, align 8
  %7 = alloca ptr, align 8
  %8 = alloca ptr, align 8
  %9 = alloca ptr, align 8
  %10 = alloca ptr, align 8
  %11 = alloca i32, align 4
  %12 = alloca ptr, align 8
  store i64 %0, ptr %5, align 8, !tbaa !28
  store i64 %1, ptr %6, align 8, !tbaa !28
  store ptr %2, ptr %7, align 8, !tbaa !72
  store ptr %3, ptr %8, align 8, !tbaa !53
  call void @llvm.lifetime.start.p0(i64 8, ptr %9) #7
  %13 = load ptr, ptr %8, align 8, !tbaa !53
  store ptr %13, ptr %9, align 8, !tbaa !3
  %14 = load i64, ptr %5, align 8, !tbaa !28
  switch i64 %14, label %64 [
    i64 5, label %15
    i64 4, label %39
  ]

15:                                               ; preds = %4
  call void @llvm.lifetime.start.p0(i64 8, ptr %10) #7
  %16 = load ptr, ptr %9, align 8, !tbaa !3
  %17 = getelementptr inbounds nuw %struct.ossl_quic_tx_packetiser_st, ptr %16, i32 0, i32 0
  %18 = getelementptr inbounds nuw %struct.ossl_quic_tx_packetiser_args_st, ptr %17, i32 0, i32 8
  %19 = load ptr, ptr %18, align 8, !tbaa !62
  %20 = load i64, ptr %6, align 8, !tbaa !28
  %21 = call ptr @ossl_quic_stream_map_get_by_id(ptr noundef %19, i64 noundef %20)
  store ptr %21, ptr %10, align 8, !tbaa !63
  %22 = load ptr, ptr %10, align 8, !tbaa !63
  %23 = icmp eq ptr %22, null
  br i1 %23, label %24, label %25

24:                                               ; preds = %15
  store i32 1, ptr %11, align 4
  br label %36

25:                                               ; preds = %15
  %26 = load ptr, ptr %10, align 8, !tbaa !63
  %27 = getelementptr inbounds nuw %struct.quic_stream_st, ptr %26, i32 0, i32 15
  %28 = load i64, ptr %27, align 8
  %29 = and i64 %28, -68719476737
  %30 = or i64 %29, 68719476736
  store i64 %30, ptr %27, align 8
  %31 = load ptr, ptr %9, align 8, !tbaa !3
  %32 = getelementptr inbounds nuw %struct.ossl_quic_tx_packetiser_st, ptr %31, i32 0, i32 0
  %33 = getelementptr inbounds nuw %struct.ossl_quic_tx_packetiser_args_st, ptr %32, i32 0, i32 8
  %34 = load ptr, ptr %33, align 8, !tbaa !62
  %35 = load ptr, ptr %10, align 8, !tbaa !63
  call void @ossl_quic_stream_map_update_state(ptr noundef %34, ptr noundef %35)
  store i32 0, ptr %11, align 4
  br label %36

36:                                               ; preds = %25, %24
  call void @llvm.lifetime.end.p0(i64 8, ptr %10) #7
  %37 = load i32, ptr %11, align 4
  switch i32 %37, label %66 [
    i32 0, label %38
  ]

38:                                               ; preds = %36
  br label %65

39:                                               ; preds = %4
  call void @llvm.lifetime.start.p0(i64 8, ptr %12) #7
  %40 = load ptr, ptr %9, align 8, !tbaa !3
  %41 = getelementptr inbounds nuw %struct.ossl_quic_tx_packetiser_st, ptr %40, i32 0, i32 0
  %42 = getelementptr inbounds nuw %struct.ossl_quic_tx_packetiser_args_st, ptr %41, i32 0, i32 8
  %43 = load ptr, ptr %42, align 8, !tbaa !62
  %44 = load i64, ptr %6, align 8, !tbaa !28
  %45 = call ptr @ossl_quic_stream_map_get_by_id(ptr noundef %43, i64 noundef %44)
  store ptr %45, ptr %12, align 8, !tbaa !63
  %46 = load ptr, ptr %12, align 8, !tbaa !63
  %47 = icmp eq ptr %46, null
  br i1 %47, label %48, label %49

48:                                               ; preds = %39
  store i32 1, ptr %11, align 4
  br label %61

49:                                               ; preds = %39
  %50 = load ptr, ptr %9, align 8, !tbaa !3
  %51 = getelementptr inbounds nuw %struct.ossl_quic_tx_packetiser_st, ptr %50, i32 0, i32 0
  %52 = getelementptr inbounds nuw %struct.ossl_quic_tx_packetiser_args_st, ptr %51, i32 0, i32 8
  %53 = load ptr, ptr %52, align 8, !tbaa !62
  %54 = load ptr, ptr %12, align 8, !tbaa !63
  %55 = call i32 @ossl_quic_stream_map_notify_reset_stream_acked(ptr noundef %53, ptr noundef %54)
  %56 = load ptr, ptr %9, align 8, !tbaa !3
  %57 = getelementptr inbounds nuw %struct.ossl_quic_tx_packetiser_st, ptr %56, i32 0, i32 0
  %58 = getelementptr inbounds nuw %struct.ossl_quic_tx_packetiser_args_st, ptr %57, i32 0, i32 8
  %59 = load ptr, ptr %58, align 8, !tbaa !62
  %60 = load ptr, ptr %12, align 8, !tbaa !63
  call void @ossl_quic_stream_map_update_state(ptr noundef %59, ptr noundef %60)
  store i32 0, ptr %11, align 4
  br label %61

61:                                               ; preds = %49, %48
  call void @llvm.lifetime.end.p0(i64 8, ptr %12) #7
  %62 = load i32, ptr %11, align 4
  switch i32 %62, label %66 [
    i32 0, label %63
  ]

63:                                               ; preds = %61
  br label %65

64:                                               ; preds = %4
  br label %65

65:                                               ; preds = %64, %63, %38
  store i32 0, ptr %11, align 4
  br label %66

66:                                               ; preds = %65, %61, %36
  call void @llvm.lifetime.end.p0(i64 8, ptr %9) #7
  %67 = load i32, ptr %11, align 4
  switch i32 %67, label %69 [
    i32 0, label %68
    i32 1, label %68
  ]

68:                                               ; preds = %66, %66
  ret void

69:                                               ; preds = %66
  unreachable
}