; Function Attrs: nounwind uwtable
define internal void @on_confirm_notify(i64 noundef %0, i64 noundef %1, ptr readnone captures(none) %2, ptr noundef readonly captures(none) %3) #3 {
  switch i64 %0, label %.critedge [
    i64 5, label %5
    i64 4, label %14
  ]

5:                                                ; preds = %4
  %6 = getelementptr inbounds nuw i8, ptr %3, i64 192
  %7 = load ptr, ptr %6, align 8, !tbaa !57
  %8 = tail call ptr @ossl_quic_stream_map_get_by_id(ptr noundef %7, i64 noundef %1) #10
  %.not19 = icmp eq ptr %8, null
  br i1 %.not19, label %.critedge, label %9

9:                                                ; preds = %5
  %10 = getelementptr inbounds nuw i8, ptr %8, i64 256
  %11 = load i64, ptr %10, align 8
  %12 = or i64 %11, 68719476736
  store i64 %12, ptr %10, align 8
  %13 = load ptr, ptr %6, align 8, !tbaa !57
  tail call void @ossl_quic_stream_map_update_state(ptr noundef %13, ptr noundef nonnull %8) #10
  br label %.critedge

14:                                               ; preds = %4
  %15 = getelementptr inbounds nuw i8, ptr %3, i64 192
  %16 = load ptr, ptr %15, align 8, !tbaa !57
  %17 = tail call ptr @ossl_quic_stream_map_get_by_id(ptr noundef %16, i64 noundef %1) #10
  %.not = icmp eq ptr %17, null
  br i1 %.not, label %.critedge, label %18

18:                                               ; preds = %14
  %19 = load ptr, ptr %15, align 8, !tbaa !57
  %20 = tail call i32 @ossl_quic_stream_map_notify_reset_stream_acked(ptr noundef %19, ptr noundef nonnull %17) #10
  %21 = load ptr, ptr %15, align 8, !tbaa !57
  tail call void @ossl_quic_stream_map_update_state(ptr noundef %21, ptr noundef nonnull %17) #10
  br label %.critedge

.critedge:                                        ; preds = %18, %9, %14, %5, %4
  ret void
}